(lp0
I0
a(dp1
S'A'
p2
I1270566
sS'C'
p3
I1308566
sS'T'
p4
I1267125
sS'G'
p5
I1307177
sa(dp6
g2
(dp7
g2
I374500
sg3
I286218
sg4
I344485
sg5
I265363
ssg3
(dp8
g2
I361945
sg3
I302636
sg4
I264113
sg5
I379872
ssg4
(dp9
g2
I235169
sg3
I297459
sg4
I374573
sg5
I359923
ssg5
(dp10
g2
I298951
sg3
I422253
sg4
I283954
sg5
I302019
ssa(dp11
g2
(dp12
g2
(dp13
g2
I121086
sg3
I91598
sg4
I91623
sg5
I70193
ssg3
(dp14
g2
I66354
sg3
I83051
sg4
I55749
sg5
I81064
ssg4
(dp15
g2
I71296
sg3
I95742
sg4
I92191
sg5
I85256
ssg5
(dp16
g2
I63290
sg3
I89530
sg4
I55649
sg5
I56894
sssg3
(dp17
g2
(dp18
g2
I84013
sg3
I74420
sg4
I85899
sg5
I117613
ssg3
(dp19
g2
I94990
sg3
I53740
sg4
I56733
sg5
I97173
ssg4
(dp20
g2
I29289
sg3
I48034
sg4
I70183
sg5
I116607
ssg5
(dp21
g2
I77090
sg3
I125308
sg4
I80496
sg5
I96978
sssg4
(dp22
g2
(dp23
g2
I75778
sg3
I58669
sg4
I71292
sg5
I29430
ssg3
(dp24
g2
I94364
sg3
I63269
sg4
I62414
sg5
I77412
ssg4
(dp25
g2
I76135
sg3
I93223
sg4
I121136
sg5
I84078
ssg5
(dp26
g2
I94307
sg3
I105409
sg4
I65745
sg5
I94462
sssg5
(dp27
g2
(dp28
g2
I93623
sg3
I61531
sg4
I95671
sg5
I48126
ssg3
(dp29
g2
I106237
sg3
I102576
sg4
I89217
sg5
I124223
ssg4
(dp30
g2
I58449
sg3
I60460
sg4
I91063
sg5
I73982
ssg5
(dp31
g2
I64264
sg3
I102006
sg4
I82064
sg5
I53685
sssa.