(lp0
I0
a(dp1
S'A'
p2
I522403
sS'C'
p3
I461020
sS'T'
p4
I516760
sS'G'
p5
I489414
sa(dp6
g2
(dp7
g2
I169041
sg3
I107821
sg4
I144501
sg5
I99796
ssg3
(dp8
g2
I127138
sg3
I99848
sg4
I106490
sg5
I126354
ssg4
(dp9
g2
I104524
sg3
I107771
sg4
I155854
sg5
I147826
ssg5
(dp10
g2
I120483
sg3
I144354
sg4
I108636
sg5
I114186
ssa(dp11
g2
(dp12
g2
(dp13
g2
I59866
sg3
I37075
sg4
I40765
sg5
I31063
ssg3
(dp14
g2
I28837
sg3
I27190
sg4
I23807
sg5
I27726
ssg4
(dp15
g2
I29300
sg3
I33610
sg4
I42927
sg5
I38536
ssg5
(dp16
g2
I24782
sg3
I29655
sg4
I21717
sg5
I23363
sssg3
(dp17
g2
(dp18
g2
I33411
sg3
I24813
sg4
I31610
sg5
I36955
ssg3
(dp19
g2
I25780
sg3
I18720
sg4
I22683
sg5
I32413
ssg4
(dp20
g2
I14473
sg3
I19616
sg4
I26022
sg5
I46158
ssg5
(dp21
g2
I26500
sg3
I39992
sg4
I28938
sg5
I30443
sssg4
(dp22
g2
(dp23
g2
I34639
sg3
I23230
sg4
I35096
sg5
I11233
ssg3
(dp24
g2
I34056
sg3
I21682
sg4
I26363
sg5
I25385
ssg4
(dp25
g2
I37627
sg3
I32007
sg4
I52256
sg5
I33707
ssg5
(dp26
g2
I42136
sg3
I38248
sg4
I28221
sg5
I38708
sssg5
(dp27
g2
(dp28
g2
I40758
sg3
I22436
sg4
I36695
sg5
I20297
ssg3
(dp29
g2
I38119
sg3
I31971
sg4
I33369
sg5
I40503
ssg4
(dp30
g2
I22864
sg3
I22252
sg4
I34308
sg5
I29033
ssg5
(dp31
g2
I26742
sg3
I36107
sg4
I29498
sg5
I21357
sssa.